#include <math.h>
#include <stdio.h>
#include <stdlib.h>
#include <string.h>

int main()
{
	int i,a,b,c,d,e;
	scanf("%d",&i);
	a=i/10000;
	b=(i-a*10000)/1000;
	c=(i-10000*a-1000*b)/100;
	d=(i-10000*a-1000*b-100*c)/10;
    e=i-10000*a-1000*b-100*c-10*d;
	if(a==0&&b==0&&c==0&&d==0)printf("%d\n",e);
	else if(a==0&&b==0&&c==0)printf("%d%d\n",e,d);
	else if(a==0&&b==0)printf("%d%d%d\n",e,d,c);
	else if(a==0)printf("%d%d%d%d\n",e,d,c,b);
	else printf("%d%d%d%d%d\n",e,d,c,b,a);
}
